; Function Attrs: mustprogress uwtable
define void @_ZN9grpc_core14WorkSerializer3RunEN4absl12lts_2024072212AnyInvocableIFvvEEENS_13DebugLocationE(ptr noundef nonnull readonly align 8 captures(none) dereferenceable(8) %0, ptr noundef %1) local_unnamed_addr #3 align 2 personality ptr @__gxx_personality_v0 {
  %3 = alloca %"class.absl::lts_20240722::AnyInvocable", align 16
  %4 = load ptr, ptr %0, align 8, !tbaa !78
  %5 = getelementptr inbounds nuw i8, ptr %1, i64 16
  %6 = load ptr, ptr %5, align 16, !tbaa !41
  call void %6(i1 noundef zeroext false, ptr noundef nonnull align 16 dereferenceable(32) %1, ptr noundef nonnull align 16 dereferenceable(32) %3) #25
  %7 = load ptr, ptr %5, align 16, !tbaa !41
  %8 = getelementptr inbounds nuw i8, ptr %3, i64 16
  store ptr %7, ptr %8, align 16, !tbaa !41
  %9 = getelementptr inbounds nuw i8, ptr %1, i64 24
  %10 = load ptr, ptr %9, align 8, !tbaa !43
  %11 = getelementptr inbounds nuw i8, ptr %3, i64 24
  store ptr %10, ptr %11, align 8, !tbaa !43
  store ptr @_ZN4absl12lts_2024072222internal_any_invocable12EmptyManagerENS1_14FunctionToCallEPNS1_15TypeErasedStateES4_, ptr %5, align 16, !tbaa !41
  store ptr null, ptr %9, align 8, !tbaa !43
  invoke void @_ZN9grpc_core14WorkSerializer18WorkSerializerImpl3RunEN4absl12lts_2024072212AnyInvocableIFvvEEENS_13DebugLocationE(ptr noundef nonnull align 16 dereferenceable(176) %4, ptr noundef nonnull %3)
          to label %12 unwind label %14

12:                                               ; preds = %2
  %13 = load ptr, ptr %8, align 16, !tbaa !41
  call void %13(i1 noundef zeroext true, ptr noundef nonnull align 16 dereferenceable(32) %3, ptr noundef nonnull align 16 dereferenceable(32) %3) #25
  ret void

14:                                               ; preds = %2
  %15 = landingpad { ptr, i32 }
          cleanup
  %16 = load ptr, ptr %8, align 16, !tbaa !41
  call void %16(i1 noundef zeroext true, ptr noundef nonnull align 16 dereferenceable(32) %3, ptr noundef nonnull align 16 dereferenceable(32) %3) #25
  resume { ptr, i32 } %15
}